target datalayout = "e-m:e-p270:32:32-p271:32:32-p272:64:64-i64:64-i128:128-f80:128-n8:16:32:64-S128"
target triple = "x86_64-pc-linux-gnu"

%class.mpz = type { i32, i8, ptr }
%class.mpbq = type <{ %class.mpz, i32, [4 x i8] }>
%class.mpbq_manager = type { ptr, %class.mpz, %class.mpz, %class.mpbq, %class.mpz, %class.mpz, %class.mpz, %class.mpbq, %class.mpbq, %class.mpz, %class.mpz, %class.mpz }

; Function Attrs: mustprogress uwtable
define hidden void @_ZN12mpbq_manager5mul2kER4mpbqj(ptr noundef nonnull align 8 dereferenceable(208) %0, ptr noundef nonnull align 8 dereferenceable(20) %1, i32 noundef %2) #4 align 2 {
  %4 = alloca ptr, align 8
  %5 = alloca ptr, align 8
  %6 = alloca i32, align 4
  store ptr %0, ptr %4, align 8, !tbaa !20
  store ptr %1, ptr %5, align 8, !tbaa !3
  store i32 %2, ptr %6, align 4, !tbaa !12
  %7 = load ptr, ptr %4, align 8
  %8 = load i32, ptr %6, align 4, !tbaa !12
  %9 = icmp eq i32 %8, 0
  br i1 %9, label %10, label %11

10:                                               ; preds = %3
  br label %35

11:                                               ; preds = %3
  %12 = load ptr, ptr %5, align 8, !tbaa !3
  %13 = getelementptr inbounds nuw %class.mpbq, ptr %12, i32 0, i32 1
  %14 = load i32, ptr %13, align 8, !tbaa !14
  %15 = load i32, ptr %6, align 4, !tbaa !12
  %16 = icmp ult i32 %14, %15
  br i1 %16, label %17, label %29

17:                                               ; preds = %11
  %18 = getelementptr inbounds nuw %class.mpbq_manager, ptr %7, i32 0, i32 0
  %19 = load ptr, ptr %18, align 8, !tbaa !26
  %20 = load ptr, ptr %5, align 8, !tbaa !3
  %21 = getelementptr inbounds nuw %class.mpbq, ptr %20, i32 0, i32 0
  %22 = load i32, ptr %6, align 4, !tbaa !12
  %23 = load ptr, ptr %5, align 8, !tbaa !3
  %24 = getelementptr inbounds nuw %class.mpbq, ptr %23, i32 0, i32 1
  %25 = load i32, ptr %24, align 8, !tbaa !14
  %26 = sub i32 %22, %25
  call void @_ZN11mpz_managerILb0EE5mul2kER3mpzj(ptr noundef nonnull align 8 dereferenceable(600) %19, ptr noundef nonnull align 8 dereferenceable(16) %21, i32 noundef %26)
  %27 = load ptr, ptr %5, align 8, !tbaa !3
  %28 = getelementptr inbounds nuw %class.mpbq, ptr %27, i32 0, i32 1
  store i32 0, ptr %28, align 8, !tbaa !14
  br label %35

29:                                               ; preds = %11
  %30 = load i32, ptr %6, align 4, !tbaa !12
  %31 = load ptr, ptr %5, align 8, !tbaa !3
  %32 = getelementptr inbounds nuw %class.mpbq, ptr %31, i32 0, i32 1
  %33 = load i32, ptr %32, align 8, !tbaa !14
  %34 = sub i32 %33, %30
  store i32 %34, ptr %32, align 8, !tbaa !14
  br label %35

35:                                               ; preds = %10, %29, %17
  ret void
}