; Function Attrs: mustprogress uwtable
define hidden void @_ZN12mpbq_manager5mul2kER4mpbqj(ptr noundef nonnull readonly align 8 captures(none) dereferenceable(208) %0, ptr noundef nonnull align 8 dereferenceable(20) %1, i32 noundef %2) local_unnamed_addr #3 align 2 {
  %4 = icmp eq i32 %2, 0
  br i1 %4, label %14, label %5

5:                                                ; preds = %3
  %6 = getelementptr inbounds nuw i8, ptr %1, i64 16
  %7 = load i32, ptr %6, align 8, !tbaa !13
  %8 = icmp ult i32 %7, %2
  br i1 %8, label %9, label %12

9:                                                ; preds = %5
  %10 = load ptr, ptr %0, align 8, !tbaa !26
  %11 = sub nuw i32 %2, %7
  tail call void @_ZN11mpz_managerILb0EE5mul2kER3mpzj(ptr noundef nonnull align 8 dereferenceable(600) %10, ptr noundef nonnull align 8 dereferenceable(16) %1, i32 noundef %11)
  br label %.sink.split

12:                                               ; preds = %5
  %13 = sub nuw i32 %7, %2
  br label %.sink.split

.sink.split:                                      ; preds = %9, %12
  %.sink = phi i32 [ %13, %12 ], [ 0, %9 ]
  store i32 %.sink, ptr %6, align 8, !tbaa !13
  br label %14

14:                                               ; preds = %.sink.split, %3
  ret void
}